; Function Attrs: mustprogress nounwind uwtable
define void @_ZN7rocksdb19GetQueryTraceRecordD2Ev(ptr noundef nonnull align 8 dereferenceable(120) %this) unnamed_addr #6 align 2 personality ptr @__gxx_personality_v0 {
entry:
  store ptr getelementptr inbounds ({ [9 x ptr] }, ptr @_ZTVN7rocksdb19GetQueryTraceRecordE, i64 0, i32 0, i64 2), ptr %this, align 8
  %key_ = getelementptr inbounds i8, ptr %this, i64 24
  store ptr @.str, ptr %key_, align 8
  %size_.i = getelementptr inbounds i8, ptr %this, i64 32
  store i64 0, ptr %size_.i, align 8
  %self_space_.i = getelementptr inbounds i8, ptr %this, i64 72
  tail call void @_ZNSt7__cxx1112basic_stringIcSt11char_traitsIcESaIcEED1Ev(ptr noundef nonnull align 8 dereferenceable(32) %self_space_.i) #17
  %0 = getelementptr inbounds i8, ptr %this, i64 40
  tail call void @_ZN7rocksdb9CleanableD2Ev(ptr noundef nonnull align 8 dereferenceable(32) %0) #17
  ret void
}